(dp0
S'Q'
p1
F0.08711
sS'b'
p2
F0.06076
sS'P'
p3
F0.12417
sS'k'
p4
F0.06224
sS'N'
p5
F0.07647
sS'q'
p6
F0.07171
sS'p'
p7
F0.11823
sS'R'
p8
F0.10007
sS'n'
p9
F0.06204
sS'B'
p10
F0.07865
sS'r'
p11
F0.08807
sS'K'
p12
F0.07048
s.